MPASM 5.71              NEWPIC_8B_SIMPLE.ASM   3-23-2024  23:08:17         PAGE  1


LOC  OBJECT CODE     LINE SOURCE TEXT
  VALUE

                      00001 ;PISCA PISCA DUPLO
                      00002 ;ANDRE MOREIRA TAVARES
                      00003 ;CLOCK: 4Mhz
                      00004 ;4 CICLOS INTERNOS
                      00005 ;INSTRUCAO: 4Mhz/4Ciclos internos => 1Mhz => P = 1/1Mhz = 1uS
                      00006 ;CICLO DE MAQUINA = 1uS
                      00007 #include "p16f628a.inc"
                      00001         LIST
                      00002 
                      00003 ;==========================================================================
                      00004 ; Build date : Nov 17 2016
                      00005 ;  MPASM PIC16F628A processor include
                      00006 ; 
                      00007 ;  (c) Copyright 1999-2016 Microchip Technology, All rights reserved
                      00008 ;==========================================================================
                      00009 
                      00386         LIST
                      00008 ; __config 0xFF7B
2007   3F70           00009  __CONFIG _FOSC_INTOSCIO & _WDTE_OFF & _PWRTE_ON & _MCLRE_ON & _BOREN_ON & _LVP_OFF & _CPD_OFF & _CP_OFF
                      00010 ;DEFININDO REGISTROS DE USO GERAL (VARIAVEIS)
Warning[205]: Found directive in column 1. (CBLOCK)
                      00011 CBLOCK 0X20
  00000020            00012     DELAY_1     ;0x20
  00000021            00013     DELAY_2     ;0x21
                      00014  ENDC
                      00015 
                      00016  ;BANCOS
                      00017  #define    BANK1       BSF         STATUS,RP0              ;selecionando o banco 1 da memória RAM
                      00018  #define    BANK0       BCF         STATUS,RP0              ;selecionando o banco 0 da memória RAM
                      00019  ;saidas
                      00020  #define    LED         PORTA,0                             ;DEFININDO O LED
                      00021  ;entradas
                      00022  #define    B_2HZ       PORTA,1                             ;DEFININDO BOTAO DE 2HZ
                      00023  #define    B_5HZ       PORTA,2                             ;DEFININDO BOTAO DE 5HZ
                      00024  #define    B_0         PORTA,3                             ;DEFININDO BOTAO DE DESLIGAR
                      00025 
                      00026 ;========PROGRAMA==================
                      00027 RES_VECT  CODE    0x0000            ; vetor de reset, indica a posição inicial do programa na FLASH
0000   1683           00028     BANK1
Message[302]: Register in operand not in bank 0.  Ensure that bank bits are correct.
0001   1005           00029     BCF     TRISA,0                 ;seleciona o pino 0 da PORTA como SAIDA
0002   1283           00030     BANK0
0003   1005           00031     BCF     LED                     ;GARANTINDO QUE O LED IRA COMEÇAR DESLIGADO
                      00032 
0004                  00033 VERIFICA_BOTOES                     ;LACO PARA VERIFICAR SE OS BOTOES DE PISCA FORAM PRESSIONADOS
0004   1C85           00034     BTFSS   B_2HZ                   ;LE E TESTA BOTAO B_2HZ
0005   2???           00035     GOTO    B_2HZ_PRESS             ;SE PRESSIONADO VAI PRA ESSA FUNCAO
0006   1D05           00036     BTFSS   B_5HZ                   ;LE E TESTA BOTAOB_5HZ
0007   2???           00037     GOTO    B_5HZ_PRESS             ;SE PRESSIONADO VAI PRA ESSA FUNCAO
0008   2???           00038     GOTO    VERIFICA_BOTOES         ;RETORNA PARA O INICIO DO LOOP CASO ESTEJA DESLIGADO
                      00039     
0009                  00040 B_2HZ_PRESS                         ;FUNCAO CASO B2HZ FOR PRESSIONADO
0009   1405           00041     BSF     LED                     ;LIGA LED
MPASM 5.71              NEWPIC_8B_SIMPLE.ASM   3-23-2024  23:08:17         PAGE  2


LOC  OBJECT CODE     LINE SOURCE TEXT
  VALUE

000A   2???           00042     CALL    DELAY_2HZ               ;CHAMA DELAY PARA 2HZ E PAUSA POR APROXIMADAMENTE 250ms
000B   1005           00043     BCF     LED                     ;DESLIGA LED
000C   2???           00044     CALL    DELAY_2HZ               ;CHAMA DELAY PARA 2HZ E PAUSA POR APROXIMADAMENTE 250ms
000D   1985           00045     BTFSC   B_0                     ;TESTA BOTAO DE DESLIGA
000E   2???           00046     GOTO    B_2HZ_PRESS             ;SE NAO PRESSIONADO CONTINUA NO LOOP DE PISCA 2HZ
000F   2???           00047     GOTO    VERIFICA_BOTOES         ;SE PRESSIONADO APROVEITA QUE O LED TA DESLIGADO E RETORNA PRO LOOP 
                            DE VERIFICACAO DE BOTOES
                      00048     
0010                  00049 B_5HZ_PRESS                         ;FUNCAO CASO B5HZ FOR PRESSIONADO
0010   1405           00050     BSF     LED                     ;LIGA LED
0011   2???           00051     CALL    DELAY_5HZ               ;CHAMA DELAY PARA 5HZ E PAUSA POR APROXIMADAMENTE 100ms
0012   1005           00052     BCF     LED                     ;DESLIGA LED
0013   2???           00053     CALL    DELAY_5HZ               ;CHAMA DELAY PARA 5HZ E PAUSA POR APROXIMADAMENTE 100ms
0014   1985           00054     BTFSC   B_0                     ;TESTA BOTAO DE DESLIGA
0015   2???           00055     GOTO    B_5HZ_PRESS             ;SE NAO PRESSIONADO CONTINUA NO LOOP DE PISCA 5HZ
0016   2???           00056     GOTO    VERIFICA_BOTOES         ;SE PRESSIONADO APROVEITA QUE O LED TA DESLIGADO E RETORNA PRO LOOP 
                            DE VERIFICACAO DE BOTOES
                      00057     
0017                  00058 DELAY_2HZ                           ;2 ciclos
0017   1D85           00059     BTFSS   B_0                     ;1 ciclo
0018   0008           00060     RETURN
0019   3073           00061     MOVLW   .115                    ;1 ciclo
001A   00A0           00062     MOVWF   DELAY_1                 ;1 ciclo
001B                  00063 REINICIA_DELAY_2                    ;= 5 ciclos || 5us
001B   30FA           00064     MOVLW   .250                    ;1 ciclo
001C   00A1           00065     MOVWF   DELAY_2                 ;1 ciclo
001D                  00066 DECREMENTA_DELAY_2                  ;= 7 ciclos || 7us
001D   0000           00067     NOP                             ;1 ciclo 
001E   0000           00068     NOP                             ;1 ciclo 
001F   0000           00069     NOP                             ;1 ciclo 
0020   0000           00070     NOP                             ;1 ciclo 
0021   1D85           00071     BTFSS   B_0                     ;1 ciclo
0022   0008           00072     RETURN
0023   0BA1           00073     DECFSZ  DELAY_2,F               ;1 ciclo
0024   2???           00074     GOTO    DECREMENTA_DELAY_2      ;2 ciclos  || 8 ciclos por decremento de delay2 || 2000us
0025   0BA0           00075     DECFSZ  DELAY_1,F               ;1 ciclo
0026   2???           00076     GOTO    REINICIA_DELAY_2        ;2 ciclos  || 2000 Ciclos*115 = 230000 ciclos + 7 ciclos
0027   0008           00077     RETURN
                      00078     
                      00079     
0028                  00080 DELAY_5HZ                           ;2 ciclos
0028   1D85           00081     BTFSS   B_0                     ;1 ciclo
0029   0008           00082     RETURN
002A   302D           00083     MOVLW   .45             ;1 ciclo
002B   00A0           00084     MOVWF   DELAY_1                 ;1 ciclo
002C                  00085 REINICIA_DELAY_2B                   ;= 5 ciclos || 5us
002C   30FA           00086     MOVLW   .250                    ;1 ciclo
002D   00A1           00087     MOVWF   DELAY_2                 ;1 ciclo
002E                  00088 DECREMENTA_DELAY_2B                 ;= 7 ciclos || 7us
002E   0000           00089     NOP                             ;1 ciclo 
002F   0000           00090     NOP                             ;1 ciclo 
0030   0000           00091     NOP                             ;1 ciclo 
0031   0000           00092     NOP                             ;1 ciclo 
MPASM 5.71              NEWPIC_8B_SIMPLE.ASM   3-23-2024  23:08:17         PAGE  3


LOC  OBJECT CODE     LINE SOURCE TEXT
  VALUE

0032   1D85           00093     BTFSS   B_0                     ;1 ciclo
0033   0008           00094     RETURN                          
0034   0BA1           00095     DECFSZ  DELAY_2,F               ;1 ciclo
0035   2???           00096     GOTO    DECREMENTA_DELAY_2B     ;2 ciclos  || 8 ciclos por decremento de delay2 || 2000us
0036   0BA0           00097     DECFSZ  DELAY_1,F               ;1 ciclo
0037   2???           00098     GOTO    REINICIA_DELAY_2B       ;2 ciclos  || 2000 Ciclos*45 = 90000 ciclos + 7 ciclos
0038   0008           00099     RETURN
Warning[205]: Found directive in column 1. (END)
3F70                  00100 END
MPASM 5.71              NEWPIC_8B_SIMPLE.ASM   3-23-2024  23:08:17         PAGE  4


SYMBOL TABLE
  LABEL                             VALUE 

ADDEN                             00000003
ADEN                              00000003
BANK0                             BCF         STATUS,RP0
BANK1                             BSF         STATUS,RP0
BRGH                              00000002
B_0                               PORTA,3
B_2HZ                             PORTA,1
B_2HZ_PRESS                       00000009
B_5HZ                             PORTA,2
B_5HZ_PRESS                       00000010
C                                 00000000
C1INV                             00000004
C1OUT                             00000006
C2INV                             00000005
C2OUT                             00000007
CCP1CON                           00000017
CCP1IE                            00000002
CCP1IF                            00000002
CCP1M0                            00000000
CCP1M1                            00000001
CCP1M2                            00000002
CCP1M3                            00000003
CCP1X                             00000005
CCP1Y                             00000004
CCPR1                             00000015
CCPR1H                            00000016
CCPR1L                            00000015
CIS                               00000003
CM0                               00000000
CM1                               00000001
CM2                               00000002
CMCON                             0000001F
CMIE                              00000006
CMIF                              00000006
CREN                              00000004
CSRC                              00000007
DATA_CP_OFF                       00003FFF
DATA_CP_ON                        00003EFF
DC                                00000001
DECREMENTA_DELAY_2                0000001D
DECREMENTA_DELAY_2B               0000002E
DELAY_1                           00000020
DELAY_2                           00000021
DELAY_2HZ                         00000017
DELAY_5HZ                         00000028
EEADR                             0000009B
EECON1                            0000009C
EECON2                            0000009D
EEDATA                            0000009A
EEIE                              00000007
EEIF                              00000007
F                                 00000001
FERR                              00000002
MPASM 5.71              NEWPIC_8B_SIMPLE.ASM   3-23-2024  23:08:17         PAGE  5


SYMBOL TABLE
  LABEL                             VALUE 

FSR                               00000004
GIE                               00000007
INDF                              00000000
INTCON                            0000000B
INTE                              00000004
INTEDG                            00000006
INTF                              00000001
IRP                               00000007
LED                               PORTA,0
NOT_BO                            00000000
NOT_BOD                           00000000
NOT_BOR                           00000000
NOT_PD                            00000003
NOT_POR                           00000001
NOT_RBPU                          00000007
NOT_T1SYNC                        00000002
NOT_TO                            00000004
OERR                              00000001
OPTION_REG                        00000081
OSCF                              00000003
PCL                               00000002
PCLATH                            0000000A
PCON                              0000008E
PEIE                              00000006
PIE1                              0000008C
PIR1                              0000000C
PORTA                             00000005
PORTB                             00000006
PR2                               00000092
PS0                               00000000
PS1                               00000001
PS2                               00000002
PSA                               00000003
RA0                               00000000
RA1                               00000001
RA2                               00000002
RA3                               00000003
RA4                               00000004
RA5                               00000005
RA6                               00000006
RA7                               00000007
RB0                               00000000
RB1                               00000001
RB2                               00000002
RB3                               00000003
RB4                               00000004
RB5                               00000005
RB6                               00000006
RB7                               00000007
RBIE                              00000003
RBIF                              00000000
RCIE                              00000005
RCIF                              00000005
MPASM 5.71              NEWPIC_8B_SIMPLE.ASM   3-23-2024  23:08:17         PAGE  6


SYMBOL TABLE
  LABEL                             VALUE 

RCREG                             0000001A
RCSTA                             00000018
RD                                00000000
REINICIA_DELAY_2                  0000001B
REINICIA_DELAY_2B                 0000002C
RP0                               00000005
RP1                               00000006
RX9                               00000006
RX9D                              00000000
SPBRG                             00000099
SPEN                              00000007
SREN                              00000005
STATUS                            00000003
SYNC                              00000004
T0CS                              00000005
T0IE                              00000005
T0IF                              00000002
T0SE                              00000004
T1CKPS0                           00000004
T1CKPS1                           00000005
T1CON                             00000010
T1OSCEN                           00000003
T2CKPS0                           00000000
T2CKPS1                           00000001
T2CON                             00000012
TMR0                              00000001
TMR0IE                            00000005
TMR0IF                            00000002
TMR1                              0000000E
TMR1CS                            00000001
TMR1H                             0000000F
TMR1IE                            00000000
TMR1IF                            00000000
TMR1L                             0000000E
TMR1ON                            00000000
TMR2                              00000011
TMR2IE                            00000001
TMR2IF                            00000001
TMR2ON                            00000002
TOUTPS0                           00000003
TOUTPS1                           00000004
TOUTPS2                           00000005
TOUTPS3                           00000006
TRISA                             00000085
TRISA0                            00000000
TRISA1                            00000001
TRISA2                            00000002
TRISA3                            00000003
TRISA4                            00000004
TRISA5                            00000005
TRISA6                            00000006
TRISA7                            00000007
TRISB                             00000086
MPASM 5.71              NEWPIC_8B_SIMPLE.ASM   3-23-2024  23:08:17         PAGE  7


SYMBOL TABLE
  LABEL                             VALUE 

TRISB0                            00000000
TRISB1                            00000001
TRISB2                            00000002
TRISB3                            00000003
TRISB4                            00000004
TRISB5                            00000005
TRISB6                            00000006
TRISB7                            00000007
TRMT                              00000001
TX9                               00000006
TX9D                              00000000
TXEN                              00000005
TXIE                              00000004
TXIF                              00000004
TXREG                             00000019
TXSTA                             00000098
VERIFICA_BOTOES                   00000004
VR0                               00000000
VR1                               00000001
VR2                               00000002
VR3                               00000003
VRCON                             0000009F
VREN                              00000007
VROE                              00000006
VRR                               00000005
W                                 00000000
WR                                00000001
WREN                              00000002
WRERR                             00000003
Z                                 00000002
_BODEN_OFF                        00003FBF
_BODEN_ON                         00003FFF
_BOREN_OFF                        00003FBF
_BOREN_ON                         00003FFF
_CONFIG                           00002007
_CPD_OFF                          00003FFF
_CPD_ON                           00003EFF
_CP_OFF                           00003FFF
_CP_ON                            00001FFF
_DEVID1                           00002006
_ER_OSC_CLKOUT                    00003FFF
_ER_OSC_NOCLKOUT                  00003FFE
_EXTCLK_OSC                       00003FEF
_FOSC_ECIO                        00003FEF
_FOSC_EXTRCCLK                    00003FFF
_FOSC_EXTRCIO                     00003FFE
_FOSC_HS                          00003FEE
_FOSC_INTOSCCLK                   00003FFD
_FOSC_INTOSCIO                    00003FFC
_FOSC_LP                          00003FEC
_FOSC_XT                          00003FED
_HS_OSC                           00003FEE
_IDLOC0                           00002000
MPASM 5.71              NEWPIC_8B_SIMPLE.ASM   3-23-2024  23:08:17         PAGE  8


SYMBOL TABLE
  LABEL                             VALUE 

_IDLOC1                           00002001
_IDLOC2                           00002002
_IDLOC3                           00002003
_INTOSC_OSC_CLKOUT                00003FFD
_INTOSC_OSC_NOCLKOUT              00003FFC
_INTRC_OSC_CLKOUT                 00003FFD
_INTRC_OSC_NOCLKOUT               00003FFC
_LP_OSC                           00003FEC
_LVP_OFF                          00003F7F
_LVP_ON                           00003FFF
_MCLRE_OFF                        00003FDF
_MCLRE_ON                         00003FFF
_PWRTE_OFF                        00003FFF
_PWRTE_ON                         00003FF7
_RC_OSC_CLKOUT                    00003FFF
_RC_OSC_NOCLKOUT                  00003FFE
_WDTE_OFF                         00003FFB
_WDTE_ON                          00003FFF
_WDT_OFF                          00003FFB
_WDT_ON                           00003FFF
_XT_OSC                           00003FED
__16F628A                         00000001

Errors   :     0
Warnings :     2 reported,     0 suppressed
Messages :     1 reported,     0 suppressed

